target datalayout = "e-m:e-p270:32:32-p271:32:32-p272:64:64-i64:64-i128:128-f80:128-n8:16:32:64-S128"
target triple = "x86_64-unknown-linux-gnu"

module asm ".section\09\22.initcallearly.init\22, \22a\22\09\09"
module asm "__initcall__kmod_sysctls__72_37_init_fs_sysctlsearly:\09\09\09"
module asm ".long\09init_fs_sysctls - .\09"
module asm ".previous\09\09\09\09\09"

%struct.ctl_table = type { ptr, ptr, i32, i16, i32, ptr, ptr, ptr, ptr }

@__UNIQUE_ID___addressable_init_fs_sysctls73 = internal global ptr @init_fs_sysctls, section ".discard.addressable", align 8
@.str = private unnamed_addr constant [3 x i8] c"fs\00", align 1
@fs_shared_sysctls = internal global [2 x %struct.ctl_table] [%struct.ctl_table { ptr @.str.2, ptr @fs_overflowuid, i32 4, i16 420, i32 0, ptr @proc_dointvec_minmax, ptr null, ptr @sysctl_vals, ptr getelementptr (i8, ptr @sysctl_vals, i64 40) }, %struct.ctl_table { ptr @.str.3, ptr @fs_overflowgid, i32 4, i16 420, i32 0, ptr @proc_dointvec_minmax, ptr null, ptr @sysctl_vals, ptr getelementptr (i8, ptr @sysctl_vals, i64 40) }], align 16
@.str.1 = private unnamed_addr constant [18 x i8] c"fs_shared_sysctls\00", align 1
@.str.2 = private unnamed_addr constant [12 x i8] c"overflowuid\00", align 1
@fs_overflowuid = external dso_local global i32, align 4
@sysctl_vals = external dso_local constant [0 x i32], align 4
@.str.3 = private unnamed_addr constant [12 x i8] c"overflowgid\00", align 1
@fs_overflowgid = external dso_local global i32, align 4
@llvm.compiler.used = appending global [1 x ptr] [ptr @__UNIQUE_ID___addressable_init_fs_sysctls73], section "llvm.metadata"

; Function Attrs: cold fn_ret_thunk_extern nounwind null_pointer_is_valid optsize
define internal noundef i32 @init_fs_sysctls() #0 section ".init.text" align 16 {
  tail call void @__register_sysctl_init(ptr noundef nonnull @.str, ptr noundef nonnull @fs_shared_sysctls, ptr noundef nonnull @.str.1, i64 noundef 2) #2
  ret i32 0
}

; Function Attrs: null_pointer_is_valid
declare dso_local void @__register_sysctl_init(ptr noundef, ptr noundef, ptr noundef, i64 noundef) local_unnamed_addr #1

; Function Attrs: null_pointer_is_valid
declare dso_local i32 @proc_dointvec_minmax(ptr noundef, i32 noundef, ptr noundef, ptr noundef, ptr noundef) #1


!llvm.module.flags = !{!0, !1, !2, !3, !4}

!0 = !{i32 1, !"wchar_size", i32 2}
!1 = !{i32 8, !"cf-protection-branch", i32 1}
!2 = !{i32 4, !"function_return_thunk_extern", i32 1}
!3 = !{i32 4, !"indirect_branch_cs_prefix", i32 1}
!4 = !{i32 4, !"SkipRaxSetup", i32 1}
